target datalayout = "e-m:e-p270:32:32-p271:32:32-p272:64:64-i64:64-i128:128-f80:128-n8:16:32:64-S128"
target triple = "x86_64-pc-linux-gnu"

%struct._zval_struct = type { %union._zend_value, %union.anon, %union.anon.2 }
%union._zend_value = type { i64 }
%union.anon = type { i32 }
%union.anon.2 = type { i32 }

; Function Attrs: nounwind uwtable
define dso_local i32 @add_next_index_bool(ptr noundef %0, i1 noundef zeroext %1) #0 {
  %3 = alloca ptr, align 8
  %4 = alloca i8, align 1
  %5 = alloca %struct._zval_struct, align 8
  store ptr %0, ptr %3, align 8, !tbaa !8
  %6 = zext i1 %1 to i8
  store i8 %6, ptr %4, align 1, !tbaa !72
  call void @llvm.lifetime.start.p0(i64 16, ptr %5) #21
  br label %7

7:                                                ; preds = %2
  %8 = load i8, ptr %4, align 1, !tbaa !72, !range !73, !noundef !74
  %9 = trunc i8 %8 to i1
  %10 = select i1 %9, i32 3, i32 2
  %11 = getelementptr inbounds nuw %struct._zval_struct, ptr %5, i32 0, i32 1
  store i32 %10, ptr %11, align 8, !tbaa !44
  br label %12

12:                                               ; preds = %7
  br label %13

13:                                               ; preds = %12
  %14 = load ptr, ptr %3, align 8, !tbaa !8
  %15 = getelementptr inbounds nuw %struct._zval_struct, ptr %14, i32 0, i32 0
  %16 = load ptr, ptr %15, align 8, !tbaa !44
  %17 = call ptr @zend_hash_next_index_insert(ptr noundef %16, ptr noundef %5)
  %18 = icmp ne ptr %17, null
  %19 = select i1 %18, i32 0, i32 -1
  call void @llvm.lifetime.end.p0(i64 16, ptr %5) #21
  ret i32 %19
}