; Function Attrs: nounwind uwtable
define dso_local range(i32 -1, 1) i32 @add_next_index_bool(ptr noundef readonly captures(none) %0, i1 noundef zeroext %1) local_unnamed_addr #2 {
  %3 = alloca %struct._zval_struct, align 8
  call void @llvm.lifetime.start.p0(i64 16, ptr nonnull %3) #34
  %4 = select i1 %1, i32 3, i32 2
  %5 = getelementptr inbounds nuw i8, ptr %3, i64 8
  store i32 %4, ptr %5, align 8, !tbaa !42
  %6 = load ptr, ptr %0, align 8, !tbaa !42
  %7 = call ptr @zend_hash_next_index_insert(ptr noundef %6, ptr noundef nonnull %3) #34
  %.not = icmp eq ptr %7, null
  %8 = sext i1 %.not to i32
  call void @llvm.lifetime.end.p0(i64 16, ptr nonnull %3) #34
  ret i32 %8
}